; ModuleID = '14/1344.c'
source_filename = "14/1344.c"
target datalayout = "e-m:e-p270:32:32-p271:32:32-p272:64:64-i64:64-f80:128-n8:16:32:64-S128"
target triple = "x86_64-pc-linux-gnu"

%struct.student = type { i32, i32, i32, i32 }

@.str = private unnamed_addr constant [3 x i8] c"%d\00", align 1
@.str.1 = private unnamed_addr constant [9 x i8] c"%d %d %d\00", align 1
@.str.2 = private unnamed_addr constant [7 x i8] c"%d %d\0A\00", align 1

; Function Attrs: noinline nounwind uwtable
define dso_local void @main() #0 {
  %1 = alloca i32, align 4
  %2 = alloca i8*, align 8
  %3 = alloca i64, align 8
  %4 = alloca i32, align 4
  %5 = alloca i32, align 4
  %6 = alloca i32, align 4
  %7 = call i32 (i8*, ...) @__isoc99_scanf(i8* getelementptr inbounds ([3 x i8], [3 x i8]* @.str, i64 0, i64 0), i32* %1)
  %8 = load i32, i32* %1, align 4
  %9 = zext i32 %8 to i64
  %10 = call i8* @llvm.stacksave()
  store i8* %10, i8** %2, align 8
  %11 = alloca %struct.student, i64 %9, align 16
  store i64 %9, i64* %3, align 8
  store i32 0, i32* %4, align 4
  br label %12

12:                                               ; preds = %45, %0
  %13 = load i32, i32* %4, align 4
  %14 = load i32, i32* %1, align 4
  %15 = icmp slt i32 %13, %14
  br i1 %15, label %16, label %48

16:                                               ; preds = %12
  %17 = load i32, i32* %4, align 4
  %18 = sext i32 %17 to i64
  %19 = getelementptr inbounds %struct.student, %struct.student* %11, i64 %18
  %20 = getelementptr inbounds %struct.student, %struct.student* %19, i32 0, i32 0
  %21 = load i32, i32* %4, align 4
  %22 = sext i32 %21 to i64
  %23 = getelementptr inbounds %struct.student, %struct.student* %11, i64 %22
  %24 = getelementptr inbounds %struct.student, %struct.student* %23, i32 0, i32 1
  %25 = load i32, i32* %4, align 4
  %26 = sext i32 %25 to i64
  %27 = getelementptr inbounds %struct.student, %struct.student* %11, i64 %26
  %28 = getelementptr inbounds %struct.student, %struct.student* %27, i32 0, i32 2
  %29 = call i32 (i8*, ...) @__isoc99_scanf(i8* getelementptr inbounds ([9 x i8], [9 x i8]* @.str.1, i64 0, i64 0), i32* %20, i32* %24, i32* %28)
  %30 = load i32, i32* %4, align 4
  %31 = sext i32 %30 to i64
  %32 = getelementptr inbounds %struct.student, %struct.student* %11, i64 %31
  %33 = getelementptr inbounds %struct.student, %struct.student* %32, i32 0, i32 1
  %34 = load i32, i32* %33, align 4
  %35 = load i32, i32* %4, align 4
  %36 = sext i32 %35 to i64
  %37 = getelementptr inbounds %struct.student, %struct.student* %11, i64 %36
  %38 = getelementptr inbounds %struct.student, %struct.student* %37, i32 0, i32 2
  %39 = load i32, i32* %38, align 8
  %40 = add nsw i32 %34, %39
  %41 = load i32, i32* %4, align 4
  %42 = sext i32 %41 to i64
  %43 = getelementptr inbounds %struct.student, %struct.student* %11, i64 %42
  %44 = getelementptr inbounds %struct.student, %struct.student* %43, i32 0, i32 3
  store i32 %40, i32* %44, align 4
  br label %45

45:                                               ; preds = %16
  %46 = load i32, i32* %4, align 4
  %47 = add nsw i32 %46, 1
  store i32 %47, i32* %4, align 4
  br label %12

48:                                               ; preds = %12
  store i32 0, i32* %5, align 4
  br label %49

49:                                               ; preds = %121, %48
  %50 = load i32, i32* %5, align 4
  %51 = icmp sle i32 %50, 2
  br i1 %51, label %52, label %124

52:                                               ; preds = %49
  %53 = load i32, i32* %1, align 4
  %54 = sub nsw i32 %53, 1
  store i32 %54, i32* %4, align 4
  br label %55

55:                                               ; preds = %117, %52
  %56 = load i32, i32* %4, align 4
  %57 = load i32, i32* %5, align 4
  %58 = add nsw i32 0, %57
  %59 = icmp sgt i32 %56, %58
  br i1 %59, label %60, label %120

60:                                               ; preds = %55
  %61 = load i32, i32* %4, align 4
  %62 = sext i32 %61 to i64
  %63 = getelementptr inbounds %struct.student, %struct.student* %11, i64 %62
  %64 = getelementptr inbounds %struct.student, %struct.student* %63, i32 0, i32 3
  %65 = load i32, i32* %64, align 4
  %66 = load i32, i32* %4, align 4
  %67 = sub nsw i32 %66, 1
  %68 = sext i32 %67 to i64
  %69 = getelementptr inbounds %struct.student, %struct.student* %11, i64 %68
  %70 = getelementptr inbounds %struct.student, %struct.student* %69, i32 0, i32 3
  %71 = load i32, i32* %70, align 4
  %72 = icmp sgt i32 %65, %71
  br i1 %72, label %73, label %116

73:                                               ; preds = %60
  %74 = load i32, i32* %4, align 4
  %75 = sext i32 %74 to i64
  %76 = getelementptr inbounds %struct.student, %struct.student* %11, i64 %75
  %77 = getelementptr inbounds %struct.student, %struct.student* %76, i32 0, i32 3
  %78 = load i32, i32* %77, align 4
  store i32 %78, i32* %6, align 4
  %79 = load i32, i32* %4, align 4
  %80 = sub nsw i32 %79, 1
  %81 = sext i32 %80 to i64
  %82 = getelementptr inbounds %struct.student, %struct.student* %11, i64 %81
  %83 = getelementptr inbounds %struct.student, %struct.student* %82, i32 0, i32 3
  %84 = load i32, i32* %83, align 4
  %85 = load i32, i32* %4, align 4
  %86 = sext i32 %85 to i64
  %87 = getelementptr inbounds %struct.student, %struct.student* %11, i64 %86
  %88 = getelementptr inbounds %struct.student, %struct.student* %87, i32 0, i32 3
  store i32 %84, i32* %88, align 4
  %89 = load i32, i32* %6, align 4
  %90 = load i32, i32* %4, align 4
  %91 = sub nsw i32 %90, 1
  %92 = sext i32 %91 to i64
  %93 = getelementptr inbounds %struct.student, %struct.student* %11, i64 %92
  %94 = getelementptr inbounds %struct.student, %struct.student* %93, i32 0, i32 3
  store i32 %89, i32* %94, align 4
  %95 = load i32, i32* %4, align 4
  %96 = sext i32 %95 to i64
  %97 = getelementptr inbounds %struct.student, %struct.student* %11, i64 %96
  %98 = getelementptr inbounds %struct.student, %struct.student* %97, i32 0, i32 0
  %99 = load i32, i32* %98, align 16
  store i32 %99, i32* %6, align 4
  %100 = load i32, i32* %4, align 4
  %101 = sub nsw i32 %100, 1
  %102 = sext i32 %101 to i64
  %103 = getelementptr inbounds %struct.student, %struct.student* %11, i64 %102
  %104 = getelementptr inbounds %struct.student, %struct.student* %103, i32 0, i32 0
  %105 = load i32, i32* %104, align 16
  %106 = load i32, i32* %4, align 4
  %107 = sext i32 %106 to i64
  %108 = getelementptr inbounds %struct.student, %struct.student* %11, i64 %107
  %109 = getelementptr inbounds %struct.student, %struct.student* %108, i32 0, i32 0
  store i32 %105, i32* %109, align 16
  %110 = load i32, i32* %6, align 4
  %111 = load i32, i32* %4, align 4
  %112 = sub nsw i32 %111, 1
  %113 = sext i32 %112 to i64
  %114 = getelementptr inbounds %struct.student, %struct.student* %11, i64 %113
  %115 = getelementptr inbounds %struct.student, %struct.student* %114, i32 0, i32 0
  store i32 %110, i32* %115, align 16
  br label %116

116:                                              ; preds = %73, %60
  br label %117

117:                                              ; preds = %116
  %118 = load i32, i32* %4, align 4
  %119 = add nsw i32 %118, -1
  store i32 %119, i32* %4, align 4
  br label %55

120:                                              ; preds = %55
  br label %121

121:                                              ; preds = %120
  %122 = load i32, i32* %5, align 4
  %123 = add nsw i32 %122, 1
  store i32 %123, i32* %5, align 4
  br label %49

124:                                              ; preds = %49
  store i32 0, i32* %4, align 4
  br label %125

125:                                              ; preds = %140, %124
  %126 = load i32, i32* %4, align 4
  %127 = icmp sle i32 %126, 2
  br i1 %127, label %128, label %143

128:                                              ; preds = %125
  %129 = load i32, i32* %4, align 4
  %130 = sext i32 %129 to i64
  %131 = getelementptr inbounds %struct.student, %struct.student* %11, i64 %130
  %132 = getelementptr inbounds %struct.student, %struct.student* %131, i32 0, i32 0
  %133 = load i32, i32* %132, align 16
  %134 = load i32, i32* %4, align 4
  %135 = sext i32 %134 to i64
  %136 = getelementptr inbounds %struct.student, %struct.student* %11, i64 %135
  %137 = getelementptr inbounds %struct.student, %struct.student* %136, i32 0, i32 3
  %138 = load i32, i32* %137, align 4
  %139 = call i32 (i8*, ...) @printf(i8* getelementptr inbounds ([7 x i8], [7 x i8]* @.str.2, i64 0, i64 0), i32 %133, i32 %138)
  br label %140

140:                                              ; preds = %128
  %141 = load i32, i32* %4, align 4
  %142 = add nsw i32 %141, 1
  store i32 %142, i32* %4, align 4
  br label %125

143:                                              ; preds = %125
  %144 = load i8*, i8** %2, align 8
  call void @llvm.stackrestore(i8* %144)
  ret void
}

declare dso_local i32 @__isoc99_scanf(i8*, ...) #1

; Function Attrs: nounwind
declare i8* @llvm.stacksave() #2

declare dso_local i32 @printf(i8*, ...) #1

; Function Attrs: nounwind
declare void @llvm.stackrestore(i8*) #2


!llvm.module.flags = !{!0}
!llvm.ident = !{!1}

!0 = !{i32 1, !"wchar_size", i32 4}
!1 = !{!"clang version 10.0.0-4ubuntu1 "}
